; ModuleID = '20/1146.c'
source_filename = "20/1146.c"
target datalayout = "e-m:e-p270:32:32-p271:32:32-p272:64:64-i64:64-f80:128-n8:16:32:64-S128"
target triple = "x86_64-pc-linux-gnu"

@.str = private unnamed_addr constant [5 x i8] c"%s%s\00", align 1
@.str.1 = private unnamed_addr constant [3 x i8] c"%c\00", align 1
@.str.2 = private unnamed_addr constant [3 x i8] c"%s\00", align 1
@.str.3 = private unnamed_addr constant [2 x i8] c"\0A\00", align 1

; Function Attrs: noinline nounwind uwtable
define dso_local i32 @main() #0 {
  %1 = alloca i32, align 4
  %2 = alloca [300 x [300 x i32]], align 16
  %3 = alloca [300 x i8], align 16
  %4 = alloca [300 x i8], align 16
  %5 = alloca i32, align 4
  %6 = alloca i32, align 4
  %7 = alloca i32, align 4
  %8 = alloca i32, align 4
  store i32 0, i32* %1, align 4
  br label %9

9:                                                ; preds = %63, %0
  %10 = getelementptr inbounds [300 x i8], [300 x i8]* %3, i64 0, i64 0
  %11 = getelementptr inbounds [300 x i8], [300 x i8]* %4, i64 0, i64 0
  %12 = call i32 (i8*, ...) @__isoc99_scanf(i8* getelementptr inbounds ([5 x i8], [5 x i8]* @.str, i64 0, i64 0), i8* %10, i8* %11)
  %13 = icmp ne i32 %12, -1
  br i1 %13, label %14, label %65

14:                                               ; preds = %9
  %15 = getelementptr inbounds [300 x i8], [300 x i8]* %3, i64 0, i64 0
  %16 = call i64 @strlen(i8* %15) #3
  %17 = trunc i64 %16 to i32
  store i32 %17, i32* %5, align 4
  store i32 0, i32* %6, align 4
  store i32 0, i32* %7, align 4
  store i32 0, i32* %8, align 4
  br label %18

18:                                               ; preds = %38, %14
  %19 = load i32, i32* %8, align 4
  %20 = load i32, i32* %5, align 4
  %21 = icmp slt i32 %19, %20
  br i1 %21, label %22, label %41

22:                                               ; preds = %18
  %23 = load i32, i32* %8, align 4
  %24 = sext i32 %23 to i64
  %25 = getelementptr inbounds [300 x i8], [300 x i8]* %3, i64 0, i64 %24
  %26 = load i8, i8* %25, align 1
  %27 = sext i8 %26 to i32
  %28 = load i32, i32* %6, align 4
  %29 = icmp sgt i32 %27, %28
  br i1 %29, label %30, label %37

30:                                               ; preds = %22
  %31 = load i32, i32* %8, align 4
  %32 = sext i32 %31 to i64
  %33 = getelementptr inbounds [300 x i8], [300 x i8]* %3, i64 0, i64 %32
  %34 = load i8, i8* %33, align 1
  %35 = sext i8 %34 to i32
  store i32 %35, i32* %6, align 4
  %36 = load i32, i32* %8, align 4
  store i32 %36, i32* %7, align 4
  br label %37

37:                                               ; preds = %30, %22
  br label %38

38:                                               ; preds = %37
  %39 = load i32, i32* %8, align 4
  %40 = add nsw i32 %39, 1
  store i32 %40, i32* %8, align 4
  br label %18

41:                                               ; preds = %18
  store i32 0, i32* %8, align 4
  br label %42

42:                                               ; preds = %60, %41
  %43 = load i32, i32* %8, align 4
  %44 = load i32, i32* %5, align 4
  %45 = icmp slt i32 %43, %44
  br i1 %45, label %46, label %63

46:                                               ; preds = %42
  %47 = load i32, i32* %8, align 4
  %48 = sext i32 %47 to i64
  %49 = getelementptr inbounds [300 x i8], [300 x i8]* %3, i64 0, i64 %48
  %50 = load i8, i8* %49, align 1
  %51 = sext i8 %50 to i32
  %52 = call i32 (i8*, ...) @printf(i8* getelementptr inbounds ([3 x i8], [3 x i8]* @.str.1, i64 0, i64 0), i32 %51)
  %53 = load i32, i32* %7, align 4
  %54 = load i32, i32* %8, align 4
  %55 = icmp eq i32 %53, %54
  br i1 %55, label %56, label %59

56:                                               ; preds = %46
  %57 = getelementptr inbounds [300 x i8], [300 x i8]* %4, i64 0, i64 0
  %58 = call i32 (i8*, ...) @printf(i8* getelementptr inbounds ([3 x i8], [3 x i8]* @.str.2, i64 0, i64 0), i8* %57)
  br label %59

59:                                               ; preds = %56, %46
  br label %60

60:                                               ; preds = %59
  %61 = load i32, i32* %8, align 4
  %62 = add nsw i32 %61, 1
  store i32 %62, i32* %8, align 4
  br label %42

63:                                               ; preds = %42
  %64 = call i32 (i8*, ...) @printf(i8* getelementptr inbounds ([2 x i8], [2 x i8]* @.str.3, i64 0, i64 0))
  br label %9

65:                                               ; preds = %9
  %66 = load i32, i32* %1, align 4
  ret i32 %66
}

declare dso_local i32 @__isoc99_scanf(i8*, ...) #1

; Function Attrs: nounwind readonly
declare dso_local i64 @strlen(i8*) #2

declare dso_local i32 @printf(i8*, ...) #1


!llvm.module.flags = !{!0}
!llvm.ident = !{!1}

!0 = !{i32 1, !"wchar_size", i32 4}
!1 = !{!"clang version 10.0.0-4ubuntu1 "}
